target datalayout = "e-m:e-p270:32:32-p271:32:32-p272:64:64-i64:64-i128:128-f80:128-n8:16:32:64-S128"
target triple = "x86_64-pc-linux-gnu"

%"struct.Luau::CodeGen::X64::RegisterX64" = type { i8 }
%"struct.Luau::CodeGen::X64::OperandX64" = type { i8, %"struct.Luau::CodeGen::X64::RegisterX64", %"struct.Luau::CodeGen::X64::RegisterX64", i8, i32 }
%"class.Luau::CodeGen::X64::IrCallWrapperX64" = type { ptr, ptr, i32, %"struct.std::array", i32, i32, i32, %"struct.Luau::CodeGen::X64::OperandX64", %"struct.std::array.0", %"struct.std::array.0" }
%"struct.std::array" = type { [6 x %"struct.Luau::CodeGen::X64::CallArgument"] }
%"struct.Luau::CodeGen::X64::CallArgument" = type <{ i8, [3 x i8], %"struct.Luau::CodeGen::X64::OperandX64", %"struct.Luau::CodeGen::IrOp", %"struct.Luau::CodeGen::X64::OperandX64", i8, [3 x i8] }>
%"struct.Luau::CodeGen::IrOp" = type { i32 }
%"struct.std::array.0" = type { [16 x i8] }

; Function Attrs: mustprogress nounwind uwtable
define linkonce_odr dso_local noundef nonnull align 4 dereferenceable(25) ptr @_ZNSt14__array_traitsIN4Luau7CodeGen3X6412CallArgumentELm6EE6_S_refERA6_KS3_m(ptr noundef nonnull align 4 dereferenceable(168) %0, i64 noundef %1) #3 comdat align 2 {
  %3 = alloca ptr, align 8
  %4 = alloca i64, align 8
  store ptr %0, ptr %3, align 8, !tbaa !39
  store i64 %1, ptr %4, align 8, !tbaa !83
  %5 = load ptr, ptr %3, align 8, !tbaa !39
  %6 = load i64, ptr %4, align 8, !tbaa !83
  %7 = getelementptr inbounds nuw [6 x %"struct.Luau::CodeGen::X64::CallArgument"], ptr %5, i64 0, i64 %6
  ret ptr %7
}

; Function Attrs: mustprogress nounwind uwtable
define internal noundef zeroext i1 @_ZN4Luau7CodeGen3X64L22sameUnderlyingRegisterENS1_11RegisterX64ES2_(i8 %0, i8 %1) #3 {
  %3 = alloca %"struct.Luau::CodeGen::X64::RegisterX64", align 1
  %4 = alloca %"struct.Luau::CodeGen::X64::RegisterX64", align 1
  %5 = alloca i8, align 1
  %6 = alloca i8, align 1
  %7 = getelementptr inbounds nuw %"struct.Luau::CodeGen::X64::RegisterX64", ptr %3, i32 0, i32 0
  store i8 %0, ptr %7, align 1
  %8 = getelementptr inbounds nuw %"struct.Luau::CodeGen::X64::RegisterX64", ptr %4, i32 0, i32 0
  store i8 %1, ptr %8, align 1
  call void @llvm.lifetime.start.p0(i64 1, ptr %5) #10
  %9 = load i8, ptr %3, align 1
  %10 = and i8 %9, 7
  %11 = icmp eq i8 %10, 5
  %12 = select i1 %11, i8 5, i8 4
  store i8 %12, ptr %5, align 1, !tbaa !38
  call void @llvm.lifetime.start.p0(i64 1, ptr %6) #10
  %13 = load i8, ptr %4, align 1
  %14 = and i8 %13, 7
  %15 = icmp eq i8 %14, 5
  %16 = select i1 %15, i8 5, i8 4
  store i8 %16, ptr %6, align 1, !tbaa !38
  %17 = load i8, ptr %5, align 1, !tbaa !38
  %18 = load i8, ptr %6, align 1, !tbaa !38
  %19 = icmp eq i8 %17, %18
  br i1 %19, label %20, label %28

20:                                               ; preds = %2
  %21 = load i8, ptr %3, align 1
  %22 = lshr i8 %21, 3
  %23 = zext i8 %22 to i32
  %24 = load i8, ptr %4, align 1
  %25 = lshr i8 %24, 3
  %26 = zext i8 %25 to i32
  %27 = icmp eq i32 %23, %26
  br label %28

28:                                               ; preds = %20, %2
  %29 = phi i1 [ false, %2 ], [ %27, %20 ]
  call void @llvm.lifetime.end.p0(i64 1, ptr %6) #10
  call void @llvm.lifetime.end.p0(i64 1, ptr %5) #10
  ret i1 %29
}

; Function Attrs: mustprogress nounwind uwtable
define linkonce_odr dso_local noundef nonnull align 4 dereferenceable(25) ptr @_ZNKSt5arrayIN4Luau7CodeGen3X6412CallArgumentELm6EEixEm(ptr noundef nonnull align 4 dereferenceable(168) %0, i64 noundef %1) #3 comdat align 2 {
  %3 = alloca ptr, align 8
  %4 = alloca i64, align 8
  store ptr %0, ptr %3, align 8, !tbaa !28
  store i64 %1, ptr %4, align 8, !tbaa !83
  %5 = load ptr, ptr %3, align 8
  %6 = getelementptr inbounds nuw %"struct.std::array", ptr %5, i32 0, i32 0
  %7 = load i64, ptr %4, align 8, !tbaa !83
  %8 = call noundef nonnull align 4 dereferenceable(25) ptr @_ZNSt14__array_traitsIN4Luau7CodeGen3X6412CallArgumentELm6EE6_S_refERA6_KS3_m(ptr noundef nonnull align 4 dereferenceable(168) %6, i64 noundef %7) #10
  ret ptr %8
}

; Function Attrs: mustprogress uwtable
define dso_local noundef zeroext i1 @_ZNK4Luau7CodeGen3X6416IrCallWrapperX6426interferesWithActiveTargetENS1_11RegisterX64E(ptr noundef nonnull align 8 dereferenceable(240) %0, i8 %1) #0 align 2 {
  %3 = alloca i1, align 1
  %4 = alloca %"struct.Luau::CodeGen::X64::RegisterX64", align 1
  %5 = alloca ptr, align 8
  %6 = alloca i32, align 4
  %7 = alloca i32, align 4
  %8 = alloca ptr, align 8
  %9 = alloca %"struct.Luau::CodeGen::X64::RegisterX64", align 1
  %10 = alloca %"struct.Luau::CodeGen::X64::RegisterX64", align 1
  %11 = getelementptr inbounds nuw %"struct.Luau::CodeGen::X64::RegisterX64", ptr %4, i32 0, i32 0
  store i8 %1, ptr %11, align 1
  store ptr %0, ptr %5, align 8, !tbaa !4
  %12 = load ptr, ptr %5, align 8
  call void @llvm.lifetime.start.p0(i64 4, ptr %6) #10
  store i32 0, ptr %6, align 4, !tbaa !13
  br label %13

13:                                               ; preds = %42, %2
  %14 = load i32, ptr %6, align 4, !tbaa !13
  %15 = getelementptr inbounds nuw %"class.Luau::CodeGen::X64::IrCallWrapperX64", ptr %12, i32 0, i32 4
  %16 = load i32, ptr %15, align 4, !tbaa !23
  %17 = icmp slt i32 %14, %16
  br i1 %17, label %19, label %18

18:                                               ; preds = %13
  store i32 2, ptr %7, align 4
  br label %45

19:                                               ; preds = %13
  call void @llvm.lifetime.start.p0(i64 8, ptr %8) #10
  %20 = getelementptr inbounds nuw %"class.Luau::CodeGen::X64::IrCallWrapperX64", ptr %12, i32 0, i32 3
  %21 = load i32, ptr %6, align 4, !tbaa !13
  %22 = sext i32 %21 to i64
  %23 = call noundef nonnull align 4 dereferenceable(25) ptr @_ZNKSt5arrayIN4Luau7CodeGen3X6412CallArgumentELm6EEixEm(ptr noundef nonnull align 4 dereferenceable(168) %20, i64 noundef %22) #10
  store ptr %23, ptr %8, align 8, !tbaa !39
  %24 = load ptr, ptr %8, align 8, !tbaa !39
  %25 = getelementptr inbounds nuw %"struct.Luau::CodeGen::X64::CallArgument", ptr %24, i32 0, i32 5
  %26 = load i8, ptr %25, align 4, !tbaa !49, !range !116, !noundef !117
  %27 = trunc i8 %26 to i1
  br i1 %27, label %28, label %38

28:                                               ; preds = %19
  %29 = load ptr, ptr %8, align 8, !tbaa !39
  %30 = getelementptr inbounds nuw %"struct.Luau::CodeGen::X64::CallArgument", ptr %29, i32 0, i32 4
  %31 = getelementptr inbounds nuw %"struct.Luau::CodeGen::X64::OperandX64", ptr %30, i32 0, i32 2
  call void @llvm.memcpy.p0.p0.i64(ptr align 1 %9, ptr align 2 %31, i64 1, i1 false), !tbaa.struct !26
  call void @llvm.memcpy.p0.p0.i64(ptr align 1 %10, ptr align 1 %4, i64 1, i1 false), !tbaa.struct !26
  %32 = getelementptr inbounds nuw %"struct.Luau::CodeGen::X64::RegisterX64", ptr %9, i32 0, i32 0
  %33 = load i8, ptr %32, align 1
  %34 = getelementptr inbounds nuw %"struct.Luau::CodeGen::X64::RegisterX64", ptr %10, i32 0, i32 0
  %35 = load i8, ptr %34, align 1
  %36 = call noundef zeroext i1 @_ZN4Luau7CodeGen3X64L22sameUnderlyingRegisterENS1_11RegisterX64ES2_(i8 %33, i8 %35)
  br i1 %36, label %37, label %38

37:                                               ; preds = %28
  store i1 true, ptr %3, align 1
  store i32 1, ptr %7, align 4
  br label %39

38:                                               ; preds = %28, %19
  store i32 0, ptr %7, align 4
  br label %39

39:                                               ; preds = %38, %37
  call void @llvm.lifetime.end.p0(i64 8, ptr %8) #10
  %40 = load i32, ptr %7, align 4
  switch i32 %40, label %45 [
    i32 0, label %41
  ]

41:                                               ; preds = %39
  br label %42

42:                                               ; preds = %41
  %43 = load i32, ptr %6, align 4, !tbaa !13
  %44 = add nsw i32 %43, 1
  store i32 %44, ptr %6, align 4, !tbaa !13
  br label %13, !llvm.loop !125

45:                                               ; preds = %39, %18
  call void @llvm.lifetime.end.p0(i64 4, ptr %6) #10
  %46 = load i32, ptr %7, align 4
  switch i32 %46, label %50 [
    i32 2, label %47
    i32 1, label %48
  ]

47:                                               ; preds = %45
  store i1 false, ptr %3, align 1
  br label %48

48:                                               ; preds = %47, %45
  %49 = load i1, ptr %3, align 1
  ret i1 %49

50:                                               ; preds = %45
  unreachable
}