; Function Attrs: mustprogress nofree norecurse nosync nounwind willreturn memory(argmem: read) uwtable
define dso_local noundef zeroext i1 @_ZNK4Luau7CodeGen3X6416IrCallWrapperX6426interferesWithActiveTargetENS1_11RegisterX64E(ptr noundef nonnull readonly align 8 captures(none) dereferenceable(240) %0, i8 %1) local_unnamed_addr #8 align 2 {
  %3 = getelementptr inbounds nuw i8, ptr %0, i64 188
  %4 = load i32, ptr %3, align 4, !tbaa !29
  %.not13 = icmp sgt i32 %4, 0
  br i1 %.not13, label %.lr.ph, label %._crit_edge

.lr.ph:                                           ; preds = %2
  %5 = getelementptr inbounds nuw i8, ptr %0, i64 20
  %6 = and i8 %1, 7
  %7 = icmp eq i8 %6, 5
  %wide.trip.count = zext nneg i32 %4 to i64
  br label %8

8:                                                ; preds = %.lr.ph, %.critedge
  %indvars.iv = phi i64 [ 0, %.lr.ph ], [ %indvars.iv.next, %.critedge ]
  %9 = getelementptr inbounds nuw [6 x %"struct.Luau::CodeGen::X64::CallArgument"], ptr %5, i64 0, i64 %indvars.iv
  %10 = getelementptr inbounds nuw i8, ptr %9, i64 24
  %11 = load i8, ptr %10, align 4, !tbaa !28, !range !87, !noundef !88
  %12 = trunc nuw i8 %11 to i1
  br i1 %12, label %13, label %.critedge

13:                                               ; preds = %8
  %14 = getelementptr inbounds nuw i8, ptr %9, i64 18
  %.sroa.01.0.copyload = load i8, ptr %14, align 2, !tbaa !26
  %15 = and i8 %.sroa.01.0.copyload, 7
  %16 = icmp ne i8 %15, 5
  %17 = xor i1 %7, %16
  %.unshifted.i = xor i8 %.sroa.01.0.copyload, %1
  %18 = icmp ult i8 %.unshifted.i, 8
  %or.cond = select i1 %17, i1 %18, i1 false
  br i1 %or.cond, label %._crit_edge, label %.critedge

.critedge:                                        ; preds = %13, %8
  %indvars.iv.next = add nuw nsw i64 %indvars.iv, 1
  %exitcond.not = icmp eq i64 %indvars.iv.next, %wide.trip.count
  br i1 %exitcond.not, label %._crit_edge, label %8, !llvm.loop !93

._crit_edge:                                      ; preds = %.critedge, %13, %2
  %.not.lcssa = phi i1 [ false, %2 ], [ true, %13 ], [ false, %.critedge ]
  ret i1 %.not.lcssa
}